target datalayout = "e-m:e-p270:32:32-p271:32:32-p272:64:64-i64:64-i128:128-f80:128-n8:16:32:64-S128"
target triple = "x86_64-pc-linux-gnu"

%struct._zend_alloc_globals = type { ptr }
%struct._zval_struct = type { %union._zend_value, %union.anon, %union.anon.3 }
%union._zend_value = type { i64 }
%union.anon = type { i32 }
%union.anon.3 = type { i32 }
%struct._zend_mm_heap = type { i32, ptr, i64, i64, [30 x ptr], i64, i64, i64, i32, ptr, ptr, ptr, i32, i32, i32, double, i32, i32, %struct.anon, ptr }
%struct.anon = type { ptr, ptr, ptr }
%struct._zend_mm_chunk = type { ptr, ptr, ptr, i32, i32, i32, [28 x i8], %struct._zend_mm_heap, [8 x i64], [512 x i32] }
%struct._zend_mm_huge_list = type { ptr, i64, ptr }

@.str = private unnamed_addr constant [23 x i8] c"zend_mm_heap corrupted\00", align 1
@alloc_globals = internal global %struct._zend_alloc_globals zeroinitializer, align 8

; Function Attrs: nounwind uwtable
define internal i64 @zend_mm_get_huge_block_size(ptr noundef %0, ptr noundef %1) #0 {
  %3 = alloca i64, align 8
  %4 = alloca ptr, align 8
  %5 = alloca ptr, align 8
  %6 = alloca ptr, align 8
  store ptr %0, ptr %4, align 8
  store ptr %1, ptr %5, align 8
  %7 = load ptr, ptr %4, align 8
  %8 = getelementptr inbounds %struct._zend_mm_heap, ptr %7, i32 0, i32 9
  %9 = load ptr, ptr %8, align 8
  store ptr %9, ptr %6, align 8
  br label %10

10:                                               ; preds = %23, %2
  %11 = load ptr, ptr %6, align 8
  %12 = icmp ne ptr %11, null
  br i1 %12, label %13, label %27

13:                                               ; preds = %10
  %14 = load ptr, ptr %6, align 8
  %15 = getelementptr inbounds %struct._zend_mm_huge_list, ptr %14, i32 0, i32 0
  %16 = load ptr, ptr %15, align 8
  %17 = load ptr, ptr %5, align 8
  %18 = icmp eq ptr %16, %17
  br i1 %18, label %19, label %23

19:                                               ; preds = %13
  %20 = load ptr, ptr %6, align 8
  %21 = getelementptr inbounds %struct._zend_mm_huge_list, ptr %20, i32 0, i32 1
  %22 = load i64, ptr %21, align 8
  store i64 %22, ptr %3, align 8
  br label %30

23:                                               ; preds = %13
  %24 = load ptr, ptr %6, align 8
  %25 = getelementptr inbounds %struct._zend_mm_huge_list, ptr %24, i32 0, i32 2
  %26 = load ptr, ptr %25, align 8
  store ptr %26, ptr %6, align 8
  br label %10

27:                                               ; preds = %10
  br label %28

28:                                               ; preds = %27
  call void @zend_mm_panic(ptr noundef @.str) #19
  unreachable

29:                                               ; No predecessors!
  store i64 0, ptr %3, align 8
  br label %30

30:                                               ; preds = %29, %19
  %31 = load i64, ptr %3, align 8
  ret i64 %31
}

; Function Attrs: nounwind uwtable
define internal i64 @zend_mm_size(ptr noundef %0, ptr noundef %1) #0 {
  %3 = alloca i64, align 8
  %4 = alloca ptr, align 8
  %5 = alloca ptr, align 8
  %6 = alloca i64, align 8
  %7 = alloca ptr, align 8
  %8 = alloca i32, align 4
  %9 = alloca i32, align 4
  store ptr %0, ptr %4, align 8
  store ptr %1, ptr %5, align 8
  %10 = load ptr, ptr %5, align 8
  %11 = ptrtoint ptr %10 to i64
  %12 = and i64 %11, 2097151
  store i64 %12, ptr %6, align 8
  %13 = load i64, ptr %6, align 8
  %14 = icmp eq i64 %13, 0
  %15 = xor i1 %14, true
  %16 = xor i1 %15, true
  %17 = zext i1 %16 to i32
  %18 = sext i32 %17 to i64
  %19 = icmp ne i64 %18, 0
  br i1 %19, label %20, label %24

20:                                               ; preds = %2
  %21 = load ptr, ptr %4, align 8
  %22 = load ptr, ptr %5, align 8
  %23 = call i64 @zend_mm_get_huge_block_size(ptr noundef %21, ptr noundef %22)
  store i64 %23, ptr %3, align 8
  br label %75

24:                                               ; preds = %2
  %25 = load ptr, ptr %5, align 8
  %26 = ptrtoint ptr %25 to i64
  %27 = and i64 %26, -2097152
  %28 = inttoptr i64 %27 to ptr
  store ptr %28, ptr %7, align 8
  %29 = load i64, ptr %6, align 8
  %30 = udiv i64 %29, 4096
  %31 = trunc i64 %30 to i32
  store i32 %31, ptr %8, align 4
  %32 = load ptr, ptr %7, align 8
  %33 = getelementptr inbounds %struct._zend_mm_chunk, ptr %32, i32 0, i32 9
  %34 = load i32, ptr %8, align 4
  %35 = sext i32 %34 to i64
  %36 = getelementptr inbounds [512 x i32], ptr %33, i64 0, i64 %35
  %37 = load i32, ptr %36, align 4
  store i32 %37, ptr %9, align 4
  br label %38

38:                                               ; preds = %24
  %39 = load ptr, ptr %7, align 8
  %40 = getelementptr inbounds %struct._zend_mm_chunk, ptr %39, i32 0, i32 0
  %41 = load ptr, ptr %40, align 8
  %42 = load ptr, ptr %4, align 8
  %43 = icmp eq ptr %41, %42
  %44 = xor i1 %43, true
  %45 = xor i1 %44, true
  %46 = xor i1 %45, true
  %47 = zext i1 %46 to i32
  %48 = sext i32 %47 to i64
  %49 = icmp ne i64 %48, 0
  br i1 %49, label %50, label %51

50:                                               ; preds = %38
  call void @zend_mm_panic(ptr noundef @.str) #19
  unreachable

51:                                               ; preds = %38
  br label %52

52:                                               ; preds = %51
  %53 = load i32, ptr %9, align 4
  %54 = and i32 %53, -2147483648
  %55 = icmp ne i32 %54, 0
  %56 = xor i1 %55, true
  %57 = xor i1 %56, true
  %58 = zext i1 %57 to i32
  %59 = sext i32 %58 to i64
  %60 = icmp ne i64 %59, 0
  br i1 %60, label %61, label %69

61:                                               ; preds = %52
  %62 = load i32, ptr %9, align 4
  %63 = and i32 %62, 31
  %64 = lshr i32 %63, 0
  %65 = zext i32 %64 to i64
  %66 = getelementptr inbounds [30 x i32], ptr @bin_data_size, i64 0, i64 %65
  %67 = load i32, ptr %66, align 4
  %68 = zext i32 %67 to i64
  store i64 %68, ptr %3, align 8
  br label %75

69:                                               ; preds = %52
  %70 = load i32, ptr %9, align 4
  %71 = and i32 %70, 1023
  %72 = lshr i32 %71, 0
  %73 = mul i32 %72, 4096
  %74 = zext i32 %73 to i64
  store i64 %74, ptr %3, align 8
  br label %75

75:                                               ; preds = %69, %61, %20
  %76 = load i64, ptr %3, align 8
  ret i64 %76
}

; Function Attrs: nounwind uwtable
define i64 @_zend_mm_block_size(ptr noundef %0, ptr noundef %1) #0 {
  %3 = alloca i64, align 8
  %4 = alloca ptr, align 8
  %5 = alloca ptr, align 8
  %6 = alloca i64, align 8
  %7 = alloca ptr, align 8
  store ptr %0, ptr %4, align 8
  store ptr %1, ptr %5, align 8
  %8 = load ptr, ptr %4, align 8
  %9 = getelementptr inbounds %struct._zend_mm_heap, ptr %8, i32 0, i32 0
  %10 = load i32, ptr %9, align 8
  %11 = icmp ne i32 %10, 0
  %12 = xor i1 %11, true
  %13 = xor i1 %12, true
  %14 = zext i1 %13 to i32
  %15 = sext i32 %14 to i64
  %16 = icmp ne i64 %15, 0
  br i1 %16, label %17, label %40

17:                                               ; preds = %2
  %18 = load ptr, ptr %4, align 8
  %19 = getelementptr inbounds %struct._zend_mm_heap, ptr %18, i32 0, i32 18
  %20 = getelementptr inbounds %struct.anon, ptr %19, i32 0, i32 0
  %21 = load ptr, ptr %20, align 8
  %22 = icmp eq ptr %21, @tracked_malloc
  br i1 %22, label %23, label %39

23:                                               ; preds = %17
  %24 = load ptr, ptr %5, align 8
  %25 = ptrtoint ptr %24 to i64
  %26 = lshr i64 %25, 3
  store i64 %26, ptr %6, align 8
  %27 = load ptr, ptr %4, align 8
  %28 = getelementptr inbounds %struct._zend_mm_heap, ptr %27, i32 0, i32 19
  %29 = load ptr, ptr %28, align 8
  %30 = load i64, ptr %6, align 8
  %31 = call ptr @zend_hash_index_find(ptr noundef %29, i64 noundef %30)
  store ptr %31, ptr %7, align 8
  %32 = load ptr, ptr %7, align 8
  %33 = icmp ne ptr %32, null
  br i1 %33, label %34, label %38

34:                                               ; preds = %23
  %35 = load ptr, ptr %7, align 8
  %36 = getelementptr inbounds %struct._zval_struct, ptr %35, i32 0, i32 0
  %37 = load i64, ptr %36, align 8
  store i64 %37, ptr %3, align 8
  br label %44

38:                                               ; preds = %23
  br label %39

39:                                               ; preds = %38, %17
  store i64 0, ptr %3, align 8
  br label %44

40:                                               ; preds = %2
  %41 = load ptr, ptr %4, align 8
  %42 = load ptr, ptr %5, align 8
  %43 = call i64 @zend_mm_size(ptr noundef %41, ptr noundef %42)
  store i64 %43, ptr %3, align 8
  br label %44

44:                                               ; preds = %40, %39, %34
  %45 = load i64, ptr %3, align 8
  ret i64 %45
}

; Function Attrs: nounwind uwtable
define i64 @_zend_mem_block_size(ptr noundef %0) #0 {
  %2 = alloca ptr, align 8
  store ptr %0, ptr %2, align 8
  %3 = load ptr, ptr @alloc_globals, align 8
  %4 = load ptr, ptr %2, align 8
  %5 = call i64 @_zend_mm_block_size(ptr noundef %3, ptr noundef %4)
  ret i64 %5
}